; Function Attrs: nounwind uwtable
define dso_local range(i32 0, 12) i32 @lzma_index_encoder_init(ptr noundef %0, ptr noundef %1, ptr noundef %2) #0 {
  %4 = getelementptr inbounds nuw i8, ptr %0, i64 16
  %5 = load i64, ptr %4, align 8, !tbaa !4
  %.not = icmp eq i64 %5, ptrtoint (ptr @lzma_index_encoder_init to i64)
  br i1 %.not, label %7, label %6

6:                                                ; preds = %3
  tail call void @lzma_next_end(ptr noundef nonnull %0, ptr noundef %1) #5
  br label %7

7:                                                ; preds = %6, %3
  store i64 ptrtoint (ptr @lzma_index_encoder_init to i64), ptr %4, align 8, !tbaa !4
  %8 = icmp eq ptr %2, null
  br i1 %8, label %24, label %9

9:                                                ; preds = %7
  %10 = load ptr, ptr %0, align 8, !tbaa !10
  %11 = icmp eq ptr %10, null
  br i1 %11, label %12, label %18

12:                                               ; preds = %9
  %13 = tail call ptr @lzma_alloc(i64 noundef 336, ptr noundef %1) #5
  store ptr %13, ptr %0, align 8, !tbaa !10
  %14 = icmp eq ptr %13, null
  br i1 %14, label %24, label %15

15:                                               ; preds = %12
  %16 = getelementptr inbounds nuw i8, ptr %0, i64 24
  store ptr @index_encode, ptr %16, align 8, !tbaa !11
  %17 = getelementptr inbounds nuw i8, ptr %0, i64 32
  store ptr @index_encoder_end, ptr %17, align 8, !tbaa !12
  br label %18

18:                                               ; preds = %15, %9
  %19 = phi ptr [ %13, %15 ], [ %10, %9 ]
  %20 = getelementptr inbounds nuw i8, ptr %19, i64 16
  tail call void @lzma_index_iter_init(ptr noundef nonnull %20, ptr noundef nonnull %2) #5
  store i32 0, ptr %19, align 8, !tbaa !13
  %21 = getelementptr inbounds nuw i8, ptr %19, i64 8
  store ptr %2, ptr %21, align 8, !tbaa !20
  %22 = getelementptr inbounds nuw i8, ptr %19, i64 320
  store i64 0, ptr %22, align 8, !tbaa !21
  %23 = getelementptr inbounds nuw i8, ptr %19, i64 328
  store i32 0, ptr %23, align 8, !tbaa !22
  br label %24

24:                                               ; preds = %12, %7, %18
  %.0 = phi i32 [ 0, %18 ], [ 11, %7 ], [ 5, %12 ]
  ret i32 %.0
}